; Function Attrs: mustprogress uwtable
define hidden noundef i32 @_ZN4cvc58internal6theory5arith6linear24SimplexDecisionProcedure29constructInfeasiblityFunctionERNS0_9TimerStatE(ptr noundef nonnull align 8 dereferenceable(304) %0, ptr noundef nonnull align 8 dereferenceable(8) %1) local_unnamed_addr #3 align 2 personality ptr @__gxx_personality_v0 {
  %3 = alloca %"class.std::vector", align 8
  call void @llvm.lifetime.start.p0(i64 24, ptr nonnull %3) #25
  call void @llvm.memset.p0.i64(ptr noundef nonnull align 8 dereferenceable(24) %3, i8 0, i64 24, i1 false)
  %4 = getelementptr inbounds nuw i8, ptr %0, i64 144
  %5 = load ptr, ptr %4, align 8, !tbaa !272
  invoke void @_ZNK4cvc58internal6theory5arith6linear8ErrorSet13pushFocusIntoERSt6vectorIjSaIjEE(ptr noundef nonnull align 8 dereferenceable(240) %5, ptr noundef nonnull align 8 dereferenceable(24) %3)
          to label %6 unwind label %16

6:                                                ; preds = %2
  %7 = invoke noundef i32 @_ZN4cvc58internal6theory5arith6linear24SimplexDecisionProcedure29constructInfeasiblityFunctionERNS0_9TimerStatERKSt6vectorIjSaIjEE(ptr noundef nonnull align 8 dereferenceable(304) %0, ptr noundef nonnull align 8 dereferenceable(8) %1, ptr noundef nonnull align 8 dereferenceable(24) %3)
          to label %8 unwind label %16

8:                                                ; preds = %6
  %9 = load ptr, ptr %3, align 8, !tbaa !291
  %.not.i.i.i = icmp eq ptr %9, null
  br i1 %.not.i.i.i, label %_ZNSt6vectorIjSaIjEED2Ev.exit, label %10

10:                                               ; preds = %8
  %11 = getelementptr inbounds nuw i8, ptr %3, i64 16
  %12 = load ptr, ptr %11, align 8, !tbaa !292
  %13 = ptrtoint ptr %12 to i64
  %14 = ptrtoint ptr %9 to i64
  %15 = sub i64 %13, %14
  call void @_ZdlPvm(ptr noundef nonnull %9, i64 noundef %15) #23
  br label %_ZNSt6vectorIjSaIjEED2Ev.exit

_ZNSt6vectorIjSaIjEED2Ev.exit:                    ; preds = %8, %10
  call void @llvm.lifetime.end.p0(i64 24, ptr nonnull %3) #25
  ret i32 %7

16:                                               ; preds = %6, %2
  %17 = landingpad { ptr, i32 }
          cleanup
  %18 = load ptr, ptr %3, align 8, !tbaa !291
  %.not.i.i.i3 = icmp eq ptr %18, null
  br i1 %.not.i.i.i3, label %_ZNSt6vectorIjSaIjEED2Ev.exit4, label %19

19:                                               ; preds = %16
  %20 = getelementptr inbounds nuw i8, ptr %3, i64 16
  %21 = load ptr, ptr %20, align 8, !tbaa !292
  %22 = ptrtoint ptr %21 to i64
  %23 = ptrtoint ptr %18 to i64
  %24 = sub i64 %22, %23
  call void @_ZdlPvm(ptr noundef nonnull %18, i64 noundef %24) #23
  br label %_ZNSt6vectorIjSaIjEED2Ev.exit4

_ZNSt6vectorIjSaIjEED2Ev.exit4:                   ; preds = %16, %19
  call void @llvm.lifetime.end.p0(i64 24, ptr nonnull %3) #25
  resume { ptr, i32 } %17
}